
bootloader.out:     file format elf32-i386


Disassembly of section .text:

00007c00 <_start>:
    7c00:	fa                   	cli    
    7c01:	fc                   	cld    
    7c02:	31 c0                	xor    %eax,%eax
    7c04:	8e d8                	mov    %eax,%ds
    7c06:	8e c0                	mov    %eax,%es
    7c08:	8e d0                	mov    %eax,%ss

00007c0a <seta20_1>:
    7c0a:	e4 64                	in     $0x64,%al
    7c0c:	a8 02                	test   $0x2,%al
    7c0e:	75 fa                	jne    7c0a <seta20_1>
    7c10:	b0 d1                	mov    $0xd1,%al
    7c12:	e6 64                	out    %al,$0x64

00007c14 <seta20_2>:
    7c14:	e4 64                	in     $0x64,%al
    7c16:	a8 02                	test   $0x2,%al
    7c18:	75 fa                	jne    7c14 <seta20_2>
    7c1a:	b0 df                	mov    $0xdf,%al
    7c1c:	e6 60                	out    %al,$0x60
    7c1e:	0f 01 16             	lgdtl  (%esi)
    7c21:	18 7e 0f             	sbb    %bh,0xf(%esi)
    7c24:	20 c0                	and    %al,%al
    7c26:	66 83 c8 01          	or     $0x1,%ax
    7c2a:	0f 22 c0             	mov    %eax,%cr0
    7c2d:	ea 32 7c 08 00   	ljmp   $0xb866,$0x87c32

00007c32 <boot32>:
    7c32:	66 b8 10 00          	mov    $0x10,%ax
    7c36:	8e d8                	mov    %eax,%ds
    7c38:	8e c0                	mov    %eax,%es
    7c3a:	8e e0                	mov    %eax,%fs
    7c3c:	8e e8                	mov    %eax,%gs
    7c3e:	8e d0                	mov    %eax,%ss
    7c40:	bc 00 7c 00 00       	mov    $0x7c00,%esp
    7c45:	e8 d4 01 00 00       	call   7e1e <loader>

00007c4a <boot_fail_loop>:
    7c4a:	eb fe                	jmp    7c4a <boot_fail_loop>
	...
    7dfc:	00 00                	add    %al,(%eax)
    7dfe:	55                   	push   %ebp
    7dff:	aa                   	stos   %al,%es:(%edi)

00007e00 <gdt>:
	...
    7e08:	ff                   	(bad)  
    7e09:	ff 00                	incl   (%eax)
    7e0b:	00 00                	add    %al,(%eax)
    7e0d:	9a cf 00 ff ff 00 00 	lcall  $0x0,$0xffff00cf
    7e14:	00 92 cf 00      	add    %dl,0x1700cf(%edx)

00007e18 <gdtr>:
    7e18:	17                   	pop    %ss
    7e19:	00 00                	add    %al,(%eax)
    7e1b:	7e 00                	jle    7e1d <gdtr+0x5>
	...

00007e1e <loader>:
    7e1e:	eb fe                	jmp    7e1e <loader>
